EXPORTS
    _Z10mat_2_quatR4quatRK4mat4 @1
    _Z11perspectiveR4mat4ffff @2
    _Z12SetSeedValuej @3
    _Z12axis_to_quatR4quatRK4vec3f @4
    _Z16invert_rot_transR4mat4RKS_ @5
    _Z3addR4mat4RKS_ @6
    _Z3addR4vec3RKS_S2_ @7
    _Z3dotRfRK4vec3S2_ @8
    _Z3subR4vec3RKS_S2_ @9
    _Z4conjR4quat @10
    _Z4conjR4quatRKS_ @11
    _Z4maddR4vec3RKS_RKf @12
    _Z4multR4mat4RKS_S2_ @13
    _Z4multR4vec3RKS_RKf @14
    _Z4multR4vec3RKS_S2_ @15
    _Z5crossR4vec3RKS_S2_ @16
    _Z5scaleR4vec3f @17
    _Z6invertR4mat4RKS_ @18
    _Z7frustumR4mat4ffffff @19
    _Z7look_atR4mat4RK4vec3S3_S3_ @20
    _Z7ortho2DR4mat4ffff @21
    _Z7reflectR4vec3RKS_S2_ @22
    _Z8fast_cosf @23
    _Z8mult_dirR4vec3RK4mat4RKS_ @24
    _Z8mult_posR4vec3RK4mat4RKS_ @25
    _Z8myRandomi @26
    _Z9add_quatsR4quatRKS_S2_ @27
    _Z9ffast_cosf @28
    _Z9gDebugLogPKcz @29
    _Z9normalizeR4quat @30
    _Z9normalizeR4vec3 @31
    _Z9nv_randomv @32
    _Z9transposeR4mat4 @33
    _Z9transposeR4mat4RKS_ @34
    _Z9unprojectR4vec3S0_R4mat4S2_S2_ii @35
    _ZN10NDistortOp10GetRTClassEv @36
    _ZN10NDistortOp11GetCategoryEv @37
    _ZN10NDistortOp7GetNameEv @38
    _ZN10NDistortOp7ProcessEfPP9NOperatorf @39
    _ZN10NDistortOp8GetColorEv @40
    _ZN10NDistortOp9m_RTClassE @41 DATA
    _ZN10NDistortOpC1Ev @42
    _ZN10NDistortOpC2Ev @43
    _ZN10NNormalsOp10GetRTClassEv @44
    _ZN10NNormalsOp11GetCategoryEv @45
    _ZN10NNormalsOp7GetNameEv @46
    _ZN10NNormalsOp7ProcessEfPP9NOperatorf @47
    _ZN10NNormalsOp8GetColorEv @48
    _ZN10NNormalsOp9m_RTClassE @49 DATA
    _ZN10NNormalsOpC1Ev @50
    _ZN10NNormalsOpC2Ev @51
    _ZN10NSegmentOp10GetRTClassEv @52
    _ZN10NSegmentOp11GetCategoryEv @53
    _ZN10NSegmentOp7GetNameEv @54
    _ZN10NSegmentOp7ProcessEfPP9NOperatorf @55
    _ZN10NSegmentOp8GetColorEv @56
    _ZN10NSegmentOp9m_RTClassE @57 DATA
    _ZN10NSegmentOpC1Ev @58
    _ZN10NSegmentOpC2Ev @59
    _ZN11NController10GetRTClassEv @60
    _ZN11NController8GetValueEf @61
    _ZN11NController9m_RTClassE @62 DATA
    _ZN11NControllerC1Ev @63
    _ZN11NControllerC2Ev @64
    _ZN11NControllerD0Ev @65
    _ZN11NControllerD1Ev @66
    _ZN11NControllerD2Ev @67
    _ZN11NGradientOp10GetRTClassEv @68
    _ZN11NGradientOp11GetCategoryEv @69
    _ZN11NGradientOp7GetNameEv @70
    _ZN11NGradientOp7ProcessEfPP9NOperatorf @71
    _ZN11NGradientOp8GetColorEv @72
    _ZN11NGradientOp9m_RTClassE @73 DATA
    _ZN11NGradientOpC1Ev @74
    _ZN11NGradientOpC2Ev @75
    _ZN11NRotoZoomOp10GetRTClassEv @76
    _ZN11NRotoZoomOp11GetCategoryEv @77
    _ZN11NRotoZoomOp7GetNameEv @78
    _ZN11NRotoZoomOp7ProcessEfPP9NOperatorf @79
    _ZN11NRotoZoomOp8GetColorEv @80
    _ZN11NRotoZoomOp9m_RTClassE @81 DATA
    _ZN11NRotoZoomOpC1Ev @82
    _ZN11NRotoZoomOpC2Ev @83
    _ZN11NRotoZoomOpD0Ev @84
    _ZN11NRotoZoomOpD1Ev @85
    _ZN11NRotoZoomOpD2Ev @86
    _ZN12NAbnormalsOp10GetRTClassEv @87
    _ZN12NAbnormalsOp11GetCategoryEv @88
    _ZN12NAbnormalsOp7GetNameEv @89
    _ZN12NAbnormalsOp7ProcessEfPP9NOperatorf @90
    _ZN12NAbnormalsOp8GetColorEv @91
    _ZN12NAbnormalsOp9m_RTClassE @92 DATA
    _ZN12NAbnormalsOpC1Ev @93
    _ZN12NAbnormalsOpC2Ev @94
    _ZN12NAlphaMaskOp10GetRTClassEv @95
    _ZN12NAlphaMaskOp11GetCategoryEv @96
    _ZN12NAlphaMaskOp7GetNameEv @97
    _ZN12NAlphaMaskOp7ProcessEfPP9NOperatorf @98
    _ZN12NAlphaMaskOp8GetColorEv @99
    _ZN12NAlphaMaskOp9m_RTClassE @100 DATA
    _ZN12NAlphaMaskOpC1Ev @101
    _ZN12NAlphaMaskOpC2Ev @102
    _ZN12NObjectArray10RemoveItemEm @103
    _ZN12NObjectArray15SetManageDeleteEb @104
    _ZN12NObjectArray4FindEP7NObject @105
    _ZN12NObjectArray4LoadEP8NArchive @106
    _ZN12NObjectArray4SaveEP8NArchive @107
    _ZN12NObjectArray4SortEPFiPKvS1_E @108
    _ZN12NObjectArray5ClearEv @109
    _ZN12NObjectArray5CountEv @110
    _ZN12NObjectArray7AddItemEP7NObjectm @111
    _ZN12NObjectArray7SetSizeEm @112
    _ZN12NObjectArray8AddArrayERS_ @113
    _ZN12NObjectArray8SetCountEm @114
    _ZN12NObjectArrayC1Ev @115
    _ZN12NObjectArrayC2Ev @116
    _ZN12NObjectArrayD0Ev @117
    _ZN12NObjectArrayD1Ev @118
    _ZN12NObjectArrayD2Ev @119
    _ZN12NObjectArrayixEm @120
    _ZN12NThresholdOp10GetRTClassEv @121
    _ZN12NThresholdOp11GetCategoryEv @122
    _ZN12NThresholdOp7GetNameEv @123
    _ZN12NThresholdOp7ProcessEfPP9NOperatorf @124
    _ZN12NThresholdOp8GetColorEv @125
    _ZN12NThresholdOp9m_RTClassE @126 DATA
    _ZN12NThresholdOpC1Ev @127
    _ZN12NThresholdOpC2Ev @128
    _ZN14NObjectGarbage11GetInstanceEPP7NObjecth @129
    _ZN14NObjectGarbage11RemoveEntryEPP7NObject @130
    _ZN14NObjectGarbage17SetManagedClassIDEm @131
    _ZN14NObjectGarbage7CompactEhm @132
    _ZN14NObjectGarbageC1Ev @133
    _ZN14NObjectGarbageC2Ev @134
    _ZN14NObjectGarbageD1Ev @135
    _ZN14NObjectGarbageD2Ev @136
    _ZN14NOperatorsPage10GetRTClassEv @137
    _ZN14NOperatorsPage12ComputeLinksEv @138
    _ZN14NOperatorsPage12DeleteAllOpsEv @139
    _ZN14NOperatorsPage13_ComputeLinksEP9NOperatorS1_m @140
    _ZN14NOperatorsPage14GetFinalOpFromEP9NOperator @141
    _ZN14NOperatorsPage16GetNextOperatorsEP9NOperatorR12NObjectArray @142
    _ZN14NOperatorsPage16GetPrevOperatorsEP9NOperatorR12NObjectArray @143
    _ZN14NOperatorsPage16InvalidateAllOpsEv @144
    _ZN14NOperatorsPage19GetOpsFromClassNameEPKcR12NObjectArray @145
    _ZN14NOperatorsPage4LoadEP8NArchive @146
    _ZN14NOperatorsPage4SaveEP8NArchive @147
    _ZN14NOperatorsPage5AddOpEP9NOperator @148
    _ZN14NOperatorsPage6MoveOpEP9NOperatorss @149
    _ZN14NOperatorsPage8DeleteOpEP9NOperator @150
    _ZN14NOperatorsPage9m_RTClassE @151 DATA
    _ZN14NOperatorsPageC1Ev @152
    _ZN14NOperatorsPageC2Ev @153
    _ZN14NOperatorsPageD0Ev @154
    _ZN14NOperatorsPageD1Ev @155
    _ZN14NOperatorsPageD2Ev @156
    _ZN14NRTClassModule14RegisterModuleEPKc @157
    _ZN14NRTClassModule20m_pLastRTClassModuleE @158 DATA
    _ZN14NRTClassModule21m_pFirstRTClassModuleE @159 DATA
    _ZN14NRTClassModuleC1EPKc @160
    _ZN14NRTClassModuleC2EPKc @161
    _ZN14NStoreResultOp10GetRTClassEv @162
    _ZN14NStoreResultOp11GetCategoryEv @163
    _ZN14NStoreResultOp11GetUserNameEv @164
    _ZN14NStoreResultOp7GetNameEv @165
    _ZN14NStoreResultOp7ProcessEfPP9NOperatorf @166
    _ZN14NStoreResultOp8GetColorEv @167
    _ZN14NStoreResultOp9GetBitmapEv @168
    _ZN14NStoreResultOp9m_RTClassE @169 DATA
    _ZN14NStoreResultOpC1Ev @170
    _ZN14NStoreResultOpC2Ev @171
    _ZN14NStoreResultOpD0Ev @172
    _ZN14NStoreResultOpD1Ev @173
    _ZN14NStoreResultOpD2Ev @174
    _ZN17NChannelAnimFX1Op10GetRTClassEv @175
    _ZN17NChannelAnimFX1Op11GetCategoryEv @176
    _ZN17NChannelAnimFX1Op7GetNameEv @177
    _ZN17NChannelAnimFX1Op7ProcessEfPP9NOperatorf @178
    _ZN17NChannelAnimFX1Op8GetColorEv @179
    _ZN17NChannelAnimFX1Op9m_RTClassE @180 DATA
    _ZN17NChannelAnimFX1OpC1Ev @181
    _ZN17NChannelAnimFX1OpC2Ev @182
    _ZN17NSlopeMagnitudeOp10GetRTClassEv @183
    _ZN17NSlopeMagnitudeOp11GetCategoryEv @184
    _ZN17NSlopeMagnitudeOp7GetNameEv @185
    _ZN17NSlopeMagnitudeOp7ProcessEfPP9NOperatorf @186
    _ZN17NSlopeMagnitudeOp8GetColorEv @187
    _ZN17NSlopeMagnitudeOp9m_RTClassE @188 DATA
    _ZN17NSlopeMagnitudeOpC1Ev @189
    _ZN17NSlopeMagnitudeOpC2Ev @190
    _ZN4mat415set_translationERK4vec3 @191
    _ZN4mat47set_rotERK4quat @192
    _ZN4mat47set_rotERK4vec3 @193
    _ZN4mat49set_scaleERK4vec3 @194
    _ZN4mat4C1Ev @195
    _ZN4quat7InverseEv @196
    _ZN4quat8IdentityE @197 DATA
    _ZN4quat9NormalizeEv @198
    _ZN4quatC1Ef4vec3 @199
    _ZN4quatC1Effff @200
    _ZN4quatC1Ev @201
    _ZN4quatC2Effff @202
    _ZN4quatC2Ev @203
    _ZN4quatixEi @204
    _ZN4quatmLEf @205
    _ZN4quatmlERKS_ @206
    _ZN4quatmlEf @207
    _ZN4quatpLERKS_ @208
    _ZN4vec37azimuthEv @209
    _ZN4vec39normalizeEv @210
    _ZN4vec3C1Efff @211
    _ZN4vec3C1Ev @212
    _ZN6NAddOp10GetRTClassEv @213
    _ZN6NAddOp11GetCategoryEv @214
    _ZN6NAddOp7GetNameEv @215
    _ZN6NAddOp7ProcessEfPP9NOperatorf @216
    _ZN6NAddOp8GetColorEv @217
    _ZN6NAddOp9m_RTClassE @218 DATA
    _ZN6NAddOpC1Ev @219
    _ZN6NAddOpC2Ev @220
    _ZN6NNopOp10GetRTClassEv @221
    _ZN6NNopOp11GetCategoryEv @222
    _ZN6NNopOp7GetNameEv @223
    _ZN6NNopOp7ProcessEfPP9NOperatorf @224
    _ZN6NNopOp8GetColorEv @225
    _ZN6NNopOp9m_RTClassE @226 DATA
    _ZN7NBitmap10GetRTClassEv @227
    _ZN7NBitmap7SetSizeEmm @228
    _ZN7NBitmap8GetWidthEv @229
    _ZN7NBitmap9GetHeightEv @230
    _ZN7NBitmap9GetPixelsEv @231
    _ZN7NBitmap9m_RTClassE @232 DATA
    _ZN7NBitmapC1Ev @233
    _ZN7NBitmapC2Ev @234
    _ZN7NBitmapD0Ev @235
    _ZN7NBitmapD1Ev @236
    _ZN7NBitmapD2Ev @237
    _ZN7NBlurOp10GetRTClassEv @238
    _ZN7NBlurOp11GetCategoryEv @239
    _ZN7NBlurOp7GetNameEv @240
    _ZN7NBlurOp7ProcessEfPP9NOperatorf @241
    _ZN7NBlurOp8GetColorEv @242
    _ZN7NBlurOp9m_RTClassE @243 DATA
    _ZN7NBlurOpC1Ev @244
    _ZN7NBlurOpC2Ev @245
    _ZN7NCellOp10GetRTClassEv @246
    _ZN7NCellOp11GetCategoryEv @247
    _ZN7NCellOp7GetNameEv @248
    _ZN7NCellOp7ProcessEfPP9NOperatorf @249
    _ZN7NCellOp8GetColorEv @250
    _ZN7NCellOp9m_RTClassE @251 DATA
    _ZN7NCellOpC1Ev @252
    _ZN7NCellOpC2Ev @253
    _ZN7NFlatOp10GetRTClassEv @254
    _ZN7NFlatOp11GetCategoryEv @255
    _ZN7NFlatOp7GetNameEv @256
    _ZN7NFlatOp7ProcessEfPP9NOperatorf @257
    _ZN7NFlatOp8GetColorEv @258
    _ZN7NFlatOp9m_RTClassE @259 DATA
    _ZN7NFlatOpC1Ev @260
    _ZN7NFlatOpC2Ev @261
    _ZN7NGlowOp10GetRTClassEv @262
    _ZN7NGlowOp11GetCategoryEv @263
    _ZN7NGlowOp7GetNameEv @264
    _ZN7NGlowOp7ProcessEfPP9NOperatorf @265
    _ZN7NGlowOp8GetColorEv @266
    _ZN7NGlowOp9m_RTClassE @267 DATA
    _ZN7NGlowOpC1Ev @268
    _ZN7NGlowOpC2Ev @269
    _ZN7NLerpOp10GetRTClassEv @270
    _ZN7NLerpOp11GetCategoryEv @271
    _ZN7NLerpOp7GetNameEv @272
    _ZN7NLerpOp7ProcessEfPP9NOperatorf @273
    _ZN7NLerpOp8GetColorEv @274
    _ZN7NLerpOp9m_RTClassE @275 DATA
    _ZN7NLerpOpC1Ev @276
    _ZN7NLerpOpC2Ev @277
    _ZN7NLoadOp10GetRTClassEv @278
    _ZN7NLoadOp11GetCategoryEv @279
    _ZN7NLoadOp11GetUserNameEv @280
    _ZN7NLoadOp7GetNameEv @281
    _ZN7NLoadOp7ProcessEfPP9NOperatorf @282
    _ZN7NLoadOp8GetColorEv @283
    _ZN7NLoadOp9m_RTClassE @284 DATA
    _ZN7NLoadOpC1Ev @285
    _ZN7NLoadOpC2Ev @286
    _ZN7NObject10AddRefToMeEPS_ @287
    _ZN7NObject10GetRTClassEv @288
    _ZN7NObject10GetRefToMeEm @289
    _ZN7NObject11AddVarsBlocEmP13NVarsBlocDesch @290
    _ZN7NObject11GetRefCountEv @291
    _ZN7NObject13RemoveRefToMeEPS_ @292
    _ZN7NObject13RemoveVarsRefEPS_ @293
    _ZN7NObject15GetRefToMeCountEv @294
    _ZN7NObject4LoadEP8NArchive @295
    _ZN7NObject4SaveEP8NArchive @296
    _ZN7NObject6AddRefEPS_ @297
    _ZN7NObject6GetRefEm @298
    _ZN7NObject7GetNameEv @299
    _ZN7NObject7SetNameEPKc @300
    _ZN7NObject9DuplicateEv @301
    _ZN7NObject9RemoveRefEPS_ @302
    _ZN7NObject9m_RTClassE @303 DATA
    _ZN7NObjectC1Ev @304
    _ZN7NObjectC2Ev @305
    _ZN7NObjectD0Ev @306
    _ZN7NObjectD1Ev @307
    _ZN7NObjectD2Ev @308
    _ZN7NRectOp10GetRTClassEv @309
    _ZN7NRectOp11GetCategoryEv @310
    _ZN7NRectOp7GetNameEv @311
    _ZN7NRectOp7ProcessEfPP9NOperatorf @312
    _ZN7NRectOp8GetColorEv @313
    _ZN7NRectOp9m_RTClassE @314 DATA
    _ZN7NRectOpC1Ev @315
    _ZN7NRectOpC2Ev @316
    _ZN8NAlphaOp10GetRTClassEv @317
    _ZN8NAlphaOp11GetCategoryEv @318
    _ZN8NAlphaOp7GetNameEv @319
    _ZN8NAlphaOp7ProcessEfPP9NOperatorf @320
    _ZN8NAlphaOp8GetColorEv @321
    _ZN8NAlphaOp9m_RTClassE @322 DATA
    _ZN8NAlphaOpC1Ev @323
    _ZN8NAlphaOpC2Ev @324
    _ZN8NArchive11PrepareSaveEv @325
    _ZN8NArchive12FinalizeSaveEv @326
    _ZN8NArchive12GetMappedObjEv @327
    _ZN8NArchive12PutMappedObjEP7NObject @328
    _ZN8NArchive13AddUniqueGUIDEm @329
    _ZN8NArchive14GetGUIDFromIdxEt @330
    _ZN8NArchive19AddUniqueMappedObjsEP7NObject @331
    _ZN8NArchive4ReadEv @332
    _ZN8NArchive5ClearEv @333
    _ZN8NArchive6PutObjEP7NObject @334
    _ZN8NArchive7GetDataEPvm @335
    _ZN8NArchive7PutDataEPvm @336
    _ZN8NArchive8GetClassEv @337
    _ZN8NArchive8PutClassEP7NObject @338
    _ZN8NArchiveC1EP7NStream @339
    _ZN8NArchiveC2EP7NStream @340
    _ZN8NArchiveD0Ev @341
    _ZN8NArchiveD1Ev @342
    _ZN8NArchiveD2Ev @343
    _ZN8NArchivelsEPKc @344
    _ZN8NArchivelsIfEERS_RKT_ @345
    _ZN8NArchivelsIhEERS_RKT_ @346
    _ZN8NArchivelsImEERS_RKT_ @347
    _ZN8NArchivelsIsEERS_RKT_ @348
    _ZN8NArchivelsItEERS_RKT_ @349
    _ZN8NArchiversEPc @350
    _ZN8NArchiversIfEERS_RT_ @351
    _ZN8NArchiversIhEERS_RT_ @352
    _ZN8NArchiversImEERS_RT_ @353
    _ZN8NArchiversIsEERS_RT_ @354
    _ZN8NArchiversItEERS_RT_ @355
    _ZN8NCloudOp10GetRTClassEv @356
    _ZN8NCloudOp11GetCategoryEv @357
    _ZN8NCloudOp11ImageResizeEmm @358
    _ZN8NCloudOp5CloudEhf @359
    _ZN8NCloudOp7BoxBlurEmm @360
    _ZN8NCloudOp7GetNameEv @361
    _ZN8NCloudOp7ProcessEfPP9NOperatorf @362
    _ZN8NCloudOp8GetColorEv @363
    _ZN8NCloudOp9AddRandomEf @364
    _ZN8NCloudOp9NormalizeEv @365
    _ZN8NCloudOp9m_RTClassE @366 DATA
    _ZN8NCloudOpC1Ev @367
    _ZN8NCloudOpC2Ev @368
    _ZN8NCrackOp10GetRTClassEv @369
    _ZN8NCrackOp11GetCategoryEv @370
    _ZN8NCrackOp7GetNameEv @371
    _ZN8NCrackOp7ProcessEfPP9NOperatorf @372
    _ZN8NCrackOp8GetColorEv @373
    _ZN8NCrackOp9m_RTClassE @374 DATA
    _ZN8NCrackOp9myfRandomEv @375
    _ZN8NCrackOpC1Ev @376
    _ZN8NCrackOpC2Ev @377
    _ZN8NLightOp10GetRTClassEv @378
    _ZN8NLightOp11GetCategoryEv @379
    _ZN8NLightOp7GetNameEv @380
    _ZN8NLightOp7ProcessEfPP9NOperatorf @381
    _ZN8NLightOp8GetColorEv @382
    _ZN8NLightOp9m_RTClassE @383 DATA
    _ZN8NLightOpC1Ev @384
    _ZN8NLightOpC2Ev @385
    _ZN8NNoiseOp10GetRTClassEv @386
    _ZN8NNoiseOp11GetCategoryEv @387
    _ZN8NNoiseOp7GetNameEv @388
    _ZN8NNoiseOp7ProcessEfPP9NOperatorf @389
    _ZN8NNoiseOp8GetColorEv @390
    _ZN8NNoiseOp9m_RTClassE @391 DATA
    _ZN8NNoiseOpC1Ev @392
    _ZN8NNoiseOpC2Ev @393
    _ZN8NRTClass10CreateByIDEm @394
    _ZN8NRTClass11MakeClassIDEPKc @395
    _ZN8NRTClass12CreateByNameEPKc @396
    _ZN8NRTClass24GetNextClassBySuperClassEPKcPS_ @397
    _ZN8NRTClass25GetFirstClassBySuperClassEPKc @398
    _ZN8NRTClassC1EPFP7NObjectvEPKcS5_S5_ @399
    _ZN8NRTClassC2EPFP7NObjectvEPKcS5_S5_ @400
    _ZN8NStoreOp10GetRTClassEv @401
    _ZN8NStoreOp11GetCategoryEv @402
    _ZN8NStoreOp11GetUserNameEv @403
    _ZN8NStoreOp7GetNameEv @404
    _ZN8NStoreOp7ProcessEfPP9NOperatorf @405
    _ZN8NStoreOp8GetColorEv @406
    _ZN8NStoreOp9m_RTClassE @407 DATA
    _ZN8NStoreOpC1Ev @408
    _ZN8NStoreOpC2Ev @409
    _ZN8NStoreOpD0Ev @410
    _ZN8NStoreOpD1Ev @411
    _ZN8NStoreOpD2Ev @412
    _ZN9NColorsOp10GetRTClassEv @413
    _ZN9NColorsOp11GetCategoryEv @414
    _ZN9NColorsOp7GetNameEv @415
    _ZN9NColorsOp7ProcessEfPP9NOperatorf @416
    _ZN9NColorsOp8GetColorEv @417
    _ZN9NColorsOp9m_RTClassE @418 DATA
    _ZN9NColorsOpC1Ev @419
    _ZN9NColorsOpC2Ev @420
    _ZN9NDilateOp10GetRTClassEv @421
    _ZN9NDilateOp11GetCategoryEv @422
    _ZN9NDilateOp7GetNameEv @423
    _ZN9NDilateOp7ProcessEfPP9NOperatorf @424
    _ZN9NDilateOp8GetColorEv @425
    _ZN9NDilateOp9m_RTClassE @426 DATA
    _ZN9NDilateOpC1Ev @427
    _ZN9NDilateOpC2Ev @428
    _ZN9NEngineOp11GetFinalOpsEP9NTreeNodeR12NObjectArrayb @429
    _ZN9NEngineOp11LoadProjectEPKc @430
    _ZN9NEngineOp11SaveProjectEPKc @431
    _ZN9NEngineOp12GetRootGroupEv @432
    _ZN9NEngineOp12InvalidateOpEP9NOperator @433
    _ZN9NEngineOp13CompactMemoryEh @434
    _ZN9NEngineOp15GetChannelValueEhR9NVarValue @435
    _ZN9NEngineOp15GetRootOperatorEP9NOperator @436
    _ZN9NEngineOp15SetChannelValueEhR9NVarValue @437
    _ZN9NEngineOp16GetBitmapGarbageEv @438
    _ZN9NEngineOp16InvalidateAllOpsEv @439
    _ZN9NEngineOp17_InvalidateAllOpsEP9NTreeNode @440
    _ZN9NEngineOp18ComputeInvaliddOpsEP9NOperator @441
    _ZN9NEngineOp18ProcessFinalResultEP14NStoreResultOpffPFvmmE @442
    _ZN9NEngineOp19ClearParsedOpsFlagsEP9NOperator @443
    _ZN9NEngineOp19_ComputeInvaliddOpsEP9NOperator @444
    _ZN9NEngineOp20GetFinalsResultsListER12NObjectArrayPKcb @445
    _ZN9NEngineOp25_ComputeToProcessOpsCountEP9NOperator @446
    _ZN9NEngineOp5ClearEv @447
    _ZN9NEngineOp7ExecuteEfP9NOperatorfPFvmmE @448
    _ZN9NEngineOp8_ExecuteEfP9NOperatorf @449
    _ZN9NEngineOp9GetBitmapEPP7NObjecth @450
    _ZN9NEngineOp9GetEngineEv @451
    _ZN9NEngineOpC1Ev @452
    _ZN9NEngineOpC2Ev @453
    _ZN9NEngineOpD0Ev @454
    _ZN9NEngineOpD1Ev @455
    _ZN9NEngineOpD2Ev @456
    _ZN9NInvertOp10GetRTClassEv @457
    _ZN9NInvertOp11GetCategoryEv @458
    _ZN9NInvertOp7GetNameEv @459
    _ZN9NInvertOp7ProcessEfPP9NOperatorf @460
    _ZN9NInvertOp8GetColorEv @461
    _ZN9NInvertOp9m_RTClassE @462 DATA
    _ZN9NLookupOp10GetRTClassEv @463
    _ZN9NLookupOp11GetCategoryEv @464
    _ZN9NLookupOp7GetNameEv @465
    _ZN9NLookupOp7ProcessEfPP9NOperatorf @466
    _ZN9NLookupOp8GetColorEv @467
    _ZN9NLookupOp9m_RTClassE @468 DATA
    _ZN9NLookupOpC1Ev @469
    _ZN9NLookupOpC2Ev @470
    _ZN9NOperator11GetCategoryEv @471
    _ZN9NOperator11GetUserNameEv @472
    _ZN9NOperator4LoadEP8NArchive @473
    _ZN9NOperator4SaveEP8NArchive @474
    _ZN9NOperator7GetNameEv @475
    _ZN9NOperator9DuplicateEv @476
    _ZN9NOperatorC1Ev @477
    _ZN9NOperatorC2Ev @478
    _ZN9NOperatorD0Ev @479
    _ZN9NOperatorD1Ev @480
    _ZN9NOperatorD2Ev @481
    _ZN9NPixelsOp10GetRTClassEv @482
    _ZN9NPixelsOp11GetCategoryEv @483
    _ZN9NPixelsOp7GetNameEv @484
    _ZN9NPixelsOp7ProcessEfPP9NOperatorf @485
    _ZN9NPixelsOp8GetColorEv @486
    _ZN9NPixelsOp9m_RTClassE @487 DATA
    _ZN9NPixelsOpC1Ev @488
    _ZN9NPixelsOpC2Ev @489
    _ZN9NTreeNode10GetBrotherEv @490
    _ZN9NTreeNode10GetRTClassEv @491
    _ZN9NTreeNode12GetObjsArrayEv @492
    _ZN9NTreeNode12GetSonsCountEv @493
    _ZN9NTreeNode13DeleteAllSonsEv @494
    _ZN9NTreeNode14GetSonFromNameEPKc @495
    _ZN9NTreeNode22_FindNodeFromClassNameEPS_Pc @496
    _ZN9NTreeNode4LoadEP8NArchive @497
    _ZN9NTreeNode4SaveEP8NArchive @498
    _ZN9NTreeNode6AddSonEPS_m @499
    _ZN9NTreeNode6GetSonEv @500
    _ZN9NTreeNode7FindSonEPS_ @501
    _ZN9NTreeNode9DeleteSonEm @502
    _ZN9NTreeNode9m_RTClassE @503 DATA
    _ZN9NTreeNodeC1Ev @504
    _ZN9NTreeNodeC2Ev @505
    _ZN9NTreeNodeD0Ev @506
    _ZN9NTreeNodeD1Ev @507
    _ZN9NTreeNodeD2Ev @508
    _ZN9NVarsBloc10IsAnimatedEv @509
    _ZN9NVarsBloc10MapValueToEP7NObjectm @510
    _ZN9NVarsBloc10MapValueToEPKcm @511
    _ZN9NVarsBloc10MapValueToEdmPKc @512
    _ZN9NVarsBloc13RemoveVarsRefEP7NObject @513
    _ZN9NVarsBloc17SetMapVarBlocDescEmP16NMapVarsBlocDesc @514
    _ZN9NVarsBloc24DoVarBlocVersion_MappingEP8NArchiveh @515
    _ZN9NVarsBloc4InitEmP13NVarsBlocDescP7NObjecth @516
    _ZN9NVarsBloc4LoadEP8NArchive @517
    _ZN9NVarsBloc4SaveEP8NArchive @518
    _ZN9NVarsBloc5CountEv @519
    _ZN9NVarsBloc8GetValueEmfRP7NObject @520
    _ZN9NVarsBloc8GetValueEmfRPc @521
    _ZN9NVarsBloc8GetValueEmfRf @522
    _ZN9NVarsBloc8GetValueEmfRh @523
    _ZN9NVarsBloc8GetValueEmfRm @524
    _ZN9NVarsBloc8GetValueEmfRt @525
    _ZN9NVarsBloc8SetValueEmfP7NObject @526
    _ZN9NVarsBloc8SetValueEmfPKc @527
    _ZN9NVarsBloc8SetValueEmff @528
    _ZN9NVarsBloc8SetValueEmfh @529
    _ZN9NVarsBloc8SetValueEmfm @530
    _ZN9NVarsBloc8SetValueEmft @531
    _ZN9NVarsBloc9GetValuesEv @532
    _ZN9NVarsBlocC1Ev @533
    _ZN9NVarsBlocC2Ev @534
    _ZN9NVarsBlocD1Ev @535
    _ZN9NVarsBlocD2Ev @536
    _ZN9NVortexOp10GetRTClassEv @537
    _ZN9NVortexOp11GetCategoryEv @538
    _ZN9NVortexOp7GetNameEv @539
    _ZN9NVortexOp7ProcessEfPP9NOperatorf @540
    _ZN9NVortexOp8GetColorEv @541
    _ZN9NVortexOp9m_RTClassE @542 DATA
    _ZN9NVortexOpC1Ev @543
    _ZN9NVortexOpC2Ev @544
    _ZNK4mat415get_translationER4vec3 @545
    _ZNK4mat47get_rotER4quat @546
    _ZNK4mat4ixEi @547
    _ZNK4vec34normEv @548
    _ZNK4vec37sq_normEv @549
    _ZNK4vec3ixEi @550
    _ZTV10NDistortOp @551 DATA
    _ZTV10NNormalsOp @552 DATA
    _ZTV10NSegmentOp @553 DATA
    _ZTV11NController @554 DATA
    _ZTV11NGradientOp @555 DATA
    _ZTV11NRotoZoomOp @556 DATA
    _ZTV12NAbnormalsOp @557 DATA
    _ZTV12NAlphaMaskOp @558 DATA
    _ZTV12NObjectArray @559 DATA
    _ZTV12NThresholdOp @560 DATA
    _ZTV14NOperatorsPage @561 DATA
    _ZTV14NStoreResultOp @562 DATA
    _ZTV17NChannelAnimFX1Op @563 DATA
    _ZTV17NSlopeMagnitudeOp @564 DATA
    _ZTV6NAddOp @565 DATA
    _ZTV6NNopOp @566 DATA
    _ZTV7NBitmap @567 DATA
    _ZTV7NBlurOp @568 DATA
    _ZTV7NCellOp @569 DATA
    _ZTV7NFlatOp @570 DATA
    _ZTV7NGlowOp @571 DATA
    _ZTV7NLerpOp @572 DATA
    _ZTV7NLoadOp @573 DATA
    _ZTV7NObject @574 DATA
    _ZTV7NRectOp @575 DATA
    _ZTV8NAlphaOp @576 DATA
    _ZTV8NArchive @577 DATA
    _ZTV8NCloudOp @578 DATA
    _ZTV8NCrackOp @579 DATA
    _ZTV8NLightOp @580 DATA
    _ZTV8NNoiseOp @581 DATA
    _ZTV8NStoreOp @582 DATA
    _ZTV9NColorsOp @583 DATA
    _ZTV9NDilateOp @584 DATA
    _ZTV9NEngineOp @585 DATA
    _ZTV9NInvertOp @586 DATA
    _ZTV9NLookupOp @587 DATA
    _ZTV9NOperator @588 DATA
    _ZTV9NPixelsOp @589 DATA
    _ZTV9NTreeNode @590 DATA
    _ZTV9NVortexOp @591 DATA
